Certificate:
    Data:
        Version: 3 (0x2)
        Serial Number: 16 (0x10)
    Signature Algorithm: sha256WithRSAEncryption
        Issuer: C=US, ST=US, L=US, O=US, OU=Univention Corporate Server, CN=Univention Corporate Server Root CA (ID=aDsRcued)/emailAddress=ssl@connexion.evssn.de
        Validity
            Not Before: Apr 17 13:00:21 2020 GMT
            Not After : Apr 16 13:00:21 2025 GMT
        Subject: C=US, ST=US, L=US, O=US, OU=Univention Corporate Server, CN=sso.evssn.de/emailAddress=ssl@connexion.evssn.de
        Subject Public Key Info:
            Public Key Algorithm: rsaEncryption
                Public-Key: (2048 bit)
                Modulus:
                    00:a9:2b:0d:14:aa:e2:c8:ae:8a:a7:95:3c:9c:22:
                    c8:69:f0:33:8f:e0:07:71:b6:dd:62:d2:b3:c1:55:
                    43:50:44:cc:ff:bb:7f:98:4c:48:4a:b6:47:1b:81:
                    15:fa:ca:83:78:4a:70:08:2d:a2:3b:bd:e7:07:bd:
                    46:13:56:9a:e5:e2:19:fb:c9:84:8e:ff:c6:ff:6b:
                    6b:2a:89:89:f4:af:db:e3:85:68:c0:54:bf:eb:03:
                    fa:38:58:88:c6:dc:fd:66:23:3a:28:22:d6:86:a1:
                    c4:b0:20:73:6d:c9:d7:61:dd:ab:4f:dd:c9:9f:07:
                    5a:12:1a:47:cf:fa:77:4d:02:53:d6:19:91:fd:2c:
                    5a:50:24:a0:e7:56:c3:cc:d4:9f:05:02:8d:83:24:
                    c2:84:85:e4:c7:37:cf:7c:0e:14:bf:0d:8f:fa:ce:
                    07:a2:2b:4f:9e:e1:33:2d:cf:97:cf:da:58:3f:95:
                    fe:be:aa:76:32:4c:42:6b:be:2e:38:b6:e5:bf:ac:
                    f9:c6:6e:d3:d7:ea:55:fd:b6:c6:41:1a:93:da:dc:
                    f4:66:cc:ae:6b:98:dd:65:26:16:df:fe:a3:f5:3d:
                    3c:a3:f7:37:3f:36:89:03:54:5a:e4:c2:0a:78:b3:
                    92:ed:8f:8c:80:34:d5:6e:76:2b:18:ad:a4:d3:7c:
                    a1:59
                Exponent: 65537 (0x10001)
        X509v3 extensions:
            X509v3 Basic Constraints: 
                CA:FALSE
            X509v3 Subject Key Identifier: 
                73:02:A3:90:8B:C8:4B:DD:2C:23:D2:68:55:A0:43:A1:1F:DD:FB:59
            X509v3 Authority Key Identifier: 
                keyid:EE:5C:59:9C:02:7B:F9:35:05:37:A0:3F:76:E9:4E:FA:B2:2F:06:27
                DirName:/C=US/ST=US/L=US/O=US/OU=Univention Corporate Server/CN=Univention Corporate Server Root CA (ID=aDsRcued)/emailAddress=ssl@connexion.evssn.de
                serial:EC:37:0C:E6:2D:49:52:8A

            X509v3 Key Usage: 
                Digital Signature, Non Repudiation, Key Encipherment
            X509v3 Subject Alternative Name: 
                DNS:sso.evssn.de, DNS:sso
    Signature Algorithm: sha256WithRSAEncryption
         93:e5:9e:2b:a5:9b:59:da:f3:21:31:26:35:62:33:cb:ad:98:
         0c:e1:8f:c8:ec:5e:c9:98:d4:4a:43:b1:fc:d8:4e:2c:fc:7f:
         cd:de:7b:97:3a:c8:14:61:0b:df:55:92:cd:12:73:d5:f2:7f:
         5e:59:ed:e3:5c:d8:23:51:65:18:31:b3:81:8b:34:b2:5a:25:
         fb:48:f8:e2:15:6d:71:9a:df:9e:83:e4:c9:24:c2:ee:15:3e:
         eb:c1:c9:de:5c:ff:30:0a:45:87:53:d8:69:a0:91:40:c1:a9:
         8d:da:b2:51:d5:d1:fa:a5:50:ce:e2:0a:57:e8:67:60:28:d9:
         31:33:d2:c8:db:20:4a:3b:20:04:43:7a:a2:31:6b:8a:1f:89:
         fc:08:e2:47:69:28:ae:c9:1a:32:71:fd:6a:e7:d9:3a:62:3c:
         0b:d9:93:3a:d8:bc:95:29:50:b0:c4:1d:0f:a5:bb:b8:43:e2:
         be:13:f4:1a:49:82:f1:e9:b4:22:0a:f0:8d:30:0a:86:77:b6:
         86:80:b2:65:e8:86:b5:70:09:78:06:5e:d9:5e:94:7f:ad:c7:
         1a:4e:17:3e:ee:60:1b:ff:7d:6e:ca:9b:6b:65:8f:53:30:6b:
         15:d7:ee:be:a8:51:5e:f9:41:d3:27:6c:fb:f8:39:be:e3:7f:
         fe:78:29:97
-----BEGIN CERTIFICATE-----
MIIFIjCCBAqgAwIBAgIBEDANBgkqhkiG9w0BAQsFADCBvTELMAkGA1UEBhMCVVMx
CzAJBgNVBAgTAlVTMQswCQYDVQQHEwJVUzELMAkGA1UEChMCVVMxJDAiBgNVBAsT
G1VuaXZlbnRpb24gQ29ycG9yYXRlIFNlcnZlcjE6MDgGA1UEAxMxVW5pdmVudGlv
biBDb3Jwb3JhdGUgU2VydmVyIFJvb3QgQ0EgKElEPWFEc1JjdWVkKTElMCMGCSqG
SIb3DQEJARYWc3NsQGNvbm5leGlvbi5ldnNzbi5kZTAeFw0yMDA0MTcxMzAwMjFa
Fw0yNTA0MTYxMzAwMjFaMIGYMQswCQYDVQQGEwJVUzELMAkGA1UECBMCVVMxCzAJ
BgNVBAcTAlVTMQswCQYDVQQKEwJVUzEkMCIGA1UECxMbVW5pdmVudGlvbiBDb3Jw
b3JhdGUgU2VydmVyMRUwEwYDVQQDEwxzc28uZXZzc24uZGUxJTAjBgkqhkiG9w0B
CQEWFnNzbEBjb25uZXhpb24uZXZzc24uZGUwggEiMA0GCSqGSIb3DQEBAQUAA4IB
DwAwggEKAoIBAQCpKw0UquLIroqnlTycIshp8DOP4Adxtt1i0rPBVUNQRMz/u3+Y
TEhKtkcbgRX6yoN4SnAILaI7vecHvUYTVprl4hn7yYSO/8b/a2sqiYn0r9vjhWjA
VL/rA/o4WIjG3P1mIzooItaGocSwIHNtyddh3atP3cmfB1oSGkfP+ndNAlPWGZH9
LFpQJKDnVsPM1J8FAo2DJMKEheTHN898DhS/DY/6zgeiK0+e4TMtz5fP2lg/lf6+
qnYyTEJrvi44tuW/rPnGbtPX6lX9tsZBGpPa3PRmzK5rmN1lJhbf/qP1PTyj9zc/
NokDVFrkwgp4s5Ltj4yANNVudisYraTTfKFZAgMBAAGjggFOMIIBSjAJBgNVHRME
AjAAMB0GA1UdDgQWBBRzAqOQi8hL3Swj0mhVoEOhH937WTCB8gYDVR0jBIHqMIHn
gBTuXFmcAnv5NQU3oD926U76si8GJ6GBw6SBwDCBvTELMAkGA1UEBhMCVVMxCzAJ
BgNVBAgTAlVTMQswCQYDVQQHEwJVUzELMAkGA1UEChMCVVMxJDAiBgNVBAsTG1Vu
aXZlbnRpb24gQ29ycG9yYXRlIFNlcnZlcjE6MDgGA1UEAxMxVW5pdmVudGlvbiBD
b3Jwb3JhdGUgU2VydmVyIFJvb3QgQ0EgKElEPWFEc1JjdWVkKTElMCMGCSqGSIb3
DQEJARYWc3NsQGNvbm5leGlvbi5ldnNzbi5kZYIJAOw3DOYtSVKKMAsGA1UdDwQE
AwIF4DAcBgNVHREEFTATggxzc28uZXZzc24uZGWCA3NzbzANBgkqhkiG9w0BAQsF
AAOCAQEAk+WeK6WbWdrzITEmNWIzy62YDOGPyOxeyZjUSkOx/NhOLPx/zd57lzrI
FGEL31WSzRJz1fJ/Xlnt41zYI1FlGDGzgYs0slol+0j44hVtcZrfnoPkySTC7hU+
68HJ3lz/MApFh1PYaaCRQMGpjdqyUdXR+qVQzuIKV+hnYCjZMTPSyNsgSjsgBEN6
ojFrih+J/AjiR2korskaMnH9aufZOmI8C9mTOti8lSlQsMQdD6W7uEPivhP0GkmC
8em0IgrwjTAKhne2hoCyZeiGtXAJeAZe2V6Uf63HGk4XPu5gG/99bsqba2WPUzBr
FdfuvqhRXvlB0yds+/g5vuN//ngplw==
-----END CERTIFICATE-----
